target datalayout = "e-m:e-p270:32:32-p271:32:32-p272:64:64-i64:64-i128:128-f80:128-n8:16:32:64-S128"
target triple = "x86_64-pc-linux-gnu"

%struct.tm = type { i32, i32, i32, i32, i32, i32, i32, i32, i32, i64, ptr }

; Function Attrs: nounwind uwtable
define internal void @AdjustFractSeconds(double noundef %0, ptr noundef %1, ptr noundef %2, i32 noundef %3) #0 {
  %5 = alloca double, align 8
  %6 = alloca ptr, align 8
  %7 = alloca ptr, align 8
  %8 = alloca i32, align 4
  %9 = alloca i32, align 4
  %10 = alloca i32, align 4
  store double %0, ptr %5, align 8
  store ptr %1, ptr %6, align 8
  store ptr %2, ptr %7, align 8
  store i32 %3, ptr %8, align 4
  call void @llvm.lifetime.start.p0(i64 4, ptr %9) #8
  %11 = load double, ptr %5, align 8
  %12 = fcmp oeq double %11, 0.000000e+00
  br i1 %12, label %13, label %14

13:                                               ; preds = %4
  store i32 1, ptr %10, align 4
  br label %38

14:                                               ; preds = %4
  %15 = load i32, ptr %8, align 4
  %16 = sitofp i32 %15 to double
  %17 = load double, ptr %5, align 8
  %18 = fmul double %17, %16
  store double %18, ptr %5, align 8
  %19 = load double, ptr %5, align 8
  %20 = fptosi double %19 to i32
  store i32 %20, ptr %9, align 4
  %21 = load i32, ptr %9, align 4
  %22 = load ptr, ptr %6, align 8
  %23 = getelementptr inbounds nuw %struct.tm, ptr %22, i32 0, i32 0
  %24 = load i32, ptr %23, align 8
  %25 = add i32 %24, %21
  store i32 %25, ptr %23, align 8
  %26 = load i32, ptr %9, align 4
  %27 = sitofp i32 %26 to double
  %28 = load double, ptr %5, align 8
  %29 = fsub double %28, %27
  store double %29, ptr %5, align 8
  %30 = load double, ptr %5, align 8
  %31 = fmul double %30, 1.000000e+06
  %32 = call double @llvm.rint.f64(double %31)
  %33 = load ptr, ptr %7, align 8
  %34 = load i32, ptr %33, align 4
  %35 = sitofp i32 %34 to double
  %36 = fadd double %35, %32
  %37 = fptosi double %36 to i32
  store i32 %37, ptr %33, align 4
  store i32 0, ptr %10, align 4
  br label %38

38:                                               ; preds = %14, %13
  call void @llvm.lifetime.end.p0(i64 4, ptr %9) #8
  %39 = load i32, ptr %10, align 4
  switch i32 %39, label %41 [
    i32 0, label %40
    i32 1, label %40
  ]

40:                                               ; preds = %38, %38
  ret void

41:                                               ; preds = %38
  unreachable
}

; Function Attrs: nounwind uwtable
define internal void @AdjustFractDays(double noundef %0, ptr noundef %1, ptr noundef %2, i32 noundef %3) #0 {
  %5 = alloca double, align 8
  %6 = alloca ptr, align 8
  %7 = alloca ptr, align 8
  %8 = alloca i32, align 4
  %9 = alloca i32, align 4
  %10 = alloca i32, align 4
  store double %0, ptr %5, align 8
  store ptr %1, ptr %6, align 8
  store ptr %2, ptr %7, align 8
  store i32 %3, ptr %8, align 4
  call void @llvm.lifetime.start.p0(i64 4, ptr %9) #8
  %11 = load double, ptr %5, align 8
  %12 = fcmp oeq double %11, 0.000000e+00
  br i1 %12, label %13, label %14

13:                                               ; preds = %4
  store i32 1, ptr %10, align 4
  br label %33

14:                                               ; preds = %4
  %15 = load i32, ptr %8, align 4
  %16 = sitofp i32 %15 to double
  %17 = load double, ptr %5, align 8
  %18 = fmul double %17, %16
  store double %18, ptr %5, align 8
  %19 = load double, ptr %5, align 8
  %20 = fptosi double %19 to i32
  store i32 %20, ptr %9, align 4
  %21 = load i32, ptr %9, align 4
  %22 = load ptr, ptr %6, align 8
  %23 = getelementptr inbounds nuw %struct.tm, ptr %22, i32 0, i32 3
  %24 = load i32, ptr %23, align 4
  %25 = add i32 %24, %21
  store i32 %25, ptr %23, align 4
  %26 = load i32, ptr %9, align 4
  %27 = sitofp i32 %26 to double
  %28 = load double, ptr %5, align 8
  %29 = fsub double %28, %27
  store double %29, ptr %5, align 8
  %30 = load double, ptr %5, align 8
  %31 = load ptr, ptr %6, align 8
  %32 = load ptr, ptr %7, align 8
  call void @AdjustFractSeconds(double noundef %30, ptr noundef %31, ptr noundef %32, i32 noundef 86400)
  store i32 0, ptr %10, align 4
  br label %33

33:                                               ; preds = %14, %13
  call void @llvm.lifetime.end.p0(i64 4, ptr %9) #8
  %34 = load i32, ptr %10, align 4
  switch i32 %34, label %36 [
    i32 0, label %35
    i32 1, label %35
  ]

35:                                               ; preds = %33, %33
  ret void

36:                                               ; preds = %33
  unreachable
}