; Function Attrs: mustprogress nofree norecurse nosync nounwind willreturn memory(argmem: readwrite) uwtable
define internal fastcc void @AdjustFractDays(double noundef %0, ptr noundef captures(none) %1, ptr noundef captures(none) %2, i32 noundef range(i32 7, 31) %3) unnamed_addr #7 {
  %5 = fcmp oeq double %0, 0.000000e+00
  br i1 %5, label %AdjustFractSeconds.exit, label %6

6:                                                ; preds = %4
  %7 = uitofp nneg i32 %3 to double
  %8 = fmul double %0, %7
  %9 = fptosi double %8 to i32
  %10 = getelementptr inbounds nuw i8, ptr %1, i64 12
  %11 = load i32, ptr %10, align 4
  %12 = add i32 %11, %9
  store i32 %12, ptr %10, align 4
  %13 = sitofp i32 %9 to double
  %14 = fsub double %8, %13
  %15 = fcmp oeq double %14, 0.000000e+00
  br i1 %15, label %AdjustFractSeconds.exit, label %16

16:                                               ; preds = %6
  %17 = fmul double %14, 8.640000e+04
  %18 = fptosi double %17 to i32
  %19 = load i32, ptr %1, align 8
  %20 = add i32 %19, %18
  store i32 %20, ptr %1, align 8
  %21 = sitofp i32 %18 to double
  %22 = fsub double %17, %21
  %23 = fmul double %22, 1.000000e+06
  %24 = tail call double @llvm.rint.f64(double %23)
  %25 = load i32, ptr %2, align 4
  %26 = sitofp i32 %25 to double
  %27 = fadd double %24, %26
  %28 = fptosi double %27 to i32
  store i32 %28, ptr %2, align 4
  br label %AdjustFractSeconds.exit

AdjustFractSeconds.exit:                          ; preds = %16, %6, %4
  ret void
}